target datalayout = "e-m:e-p270:32:32-p271:32:32-p272:64:64-i64:64-i128:128-f80:128-n8:16:32:64-S128"
target triple = "x86_64-pc-linux-gnu"

%struct.PCF_FaceRec_ = type { %struct.FT_FaceRec_, %struct.FT_StreamRec_, ptr, ptr, ptr, %struct.PCF_TocRec_, %struct.PCF_AccelRec_, i32, ptr, i64, ptr, %struct.PCF_EncRec_, i64 }
%struct.FT_FaceRec_ = type { i64, i64, i64, i64, i64, ptr, ptr, i32, ptr, i32, ptr, %struct.FT_Generic_, %struct.FT_BBox_, i16, i16, i16, i16, i16, i16, i16, i16, ptr, ptr, ptr, ptr, ptr, ptr, %struct.FT_ListRec_, %struct.FT_Generic_, ptr, ptr }
%struct.FT_BBox_ = type { i64, i64, i64, i64 }
%struct.FT_ListRec_ = type { ptr, ptr }
%struct.FT_Generic_ = type { ptr, ptr }
%struct.FT_StreamRec_ = type { ptr, i64, i64, %union.FT_StreamDesc_, %union.FT_StreamDesc_, ptr, ptr, ptr, ptr, ptr }
%union.FT_StreamDesc_ = type { i64 }
%struct.PCF_TocRec_ = type { i64, i64, ptr }
%struct.PCF_AccelRec_ = type { i8, i8, i8, i8, i8, i8, i8, i64, i64, i64, %struct.PCF_MetricRec_, %struct.PCF_MetricRec_, %struct.PCF_MetricRec_, %struct.PCF_MetricRec_ }
%struct.PCF_MetricRec_ = type { i16, i16, i16, i16, i16, i16, i64 }
%struct.PCF_EncRec_ = type { i16, i16, i16, i16, i16, ptr }
%struct.PCF_PropertyRec_ = type { ptr, i8, %union.anon }
%union.anon = type { ptr }
%struct.BDF_PropertyRec_ = type { i32, %union.anon.0 }
%union.anon.0 = type { ptr }

; Function Attrs: nounwind uwtable
define internal ptr @pcf_find_property(ptr noundef %0, ptr noundef %1) #0 {
  %3 = alloca ptr, align 8
  %4 = alloca ptr, align 8
  %5 = alloca ptr, align 8
  %6 = alloca ptr, align 8
  %7 = alloca i8, align 1
  %8 = alloca i32, align 4
  store ptr %0, ptr %4, align 8
  store ptr %1, ptr %5, align 8
  %9 = load ptr, ptr %4, align 8
  %10 = getelementptr inbounds %struct.PCF_FaceRec_, ptr %9, i32 0, i32 8
  %11 = load ptr, ptr %10, align 8
  store ptr %11, ptr %6, align 8
  store i8 0, ptr %7, align 1
  store i32 0, ptr %8, align 4
  br label %12

12:                                               ; preds = %36, %2
  %13 = load i32, ptr %8, align 4
  %14 = load ptr, ptr %4, align 8
  %15 = getelementptr inbounds %struct.PCF_FaceRec_, ptr %14, i32 0, i32 7
  %16 = load i32, ptr %15, align 8
  %17 = icmp slt i32 %13, %16
  br i1 %17, label %18, label %22

18:                                               ; preds = %12
  %19 = load i8, ptr %7, align 1
  %20 = icmp ne i8 %19, 0
  %21 = xor i1 %20, true
  br label %22

22:                                               ; preds = %18, %12
  %23 = phi i1 [ false, %12 ], [ %21, %18 ]
  br i1 %23, label %24, label %39

24:                                               ; preds = %22
  %25 = load ptr, ptr %6, align 8
  %26 = load i32, ptr %8, align 4
  %27 = sext i32 %26 to i64
  %28 = getelementptr inbounds %struct.PCF_PropertyRec_, ptr %25, i64 %27
  %29 = getelementptr inbounds %struct.PCF_PropertyRec_, ptr %28, i32 0, i32 0
  %30 = load ptr, ptr %29, align 8
  %31 = load ptr, ptr %5, align 8
  %32 = call i32 @strcmp(ptr noundef %30, ptr noundef %31) #6
  %33 = icmp ne i32 %32, 0
  br i1 %33, label %35, label %34

34:                                               ; preds = %24
  store i8 1, ptr %7, align 1
  br label %35

35:                                               ; preds = %34, %24
  br label %36

36:                                               ; preds = %35
  %37 = load i32, ptr %8, align 4
  %38 = add nsw i32 %37, 1
  store i32 %38, ptr %8, align 4
  br label %12, !llvm.loop !6

39:                                               ; preds = %22
  %40 = load i8, ptr %7, align 1
  %41 = icmp ne i8 %40, 0
  br i1 %41, label %42, label %48

42:                                               ; preds = %39
  %43 = load ptr, ptr %6, align 8
  %44 = load i32, ptr %8, align 4
  %45 = sext i32 %44 to i64
  %46 = getelementptr inbounds %struct.PCF_PropertyRec_, ptr %43, i64 %45
  %47 = getelementptr inbounds %struct.PCF_PropertyRec_, ptr %46, i64 -1
  store ptr %47, ptr %3, align 8
  br label %49

48:                                               ; preds = %39
  store ptr null, ptr %3, align 8
  br label %49

49:                                               ; preds = %48, %42
  %50 = load ptr, ptr %3, align 8
  ret ptr %50
}

; Function Attrs: nounwind uwtable
define internal i32 @pcf_get_bdf_property(ptr noundef %0, ptr noundef %1, ptr noundef %2) #0 {
  %4 = alloca i32, align 4
  %5 = alloca ptr, align 8
  %6 = alloca ptr, align 8
  %7 = alloca ptr, align 8
  %8 = alloca ptr, align 8
  %9 = alloca ptr, align 8
  store ptr %0, ptr %5, align 8
  store ptr %1, ptr %6, align 8
  store ptr %2, ptr %7, align 8
  %10 = load ptr, ptr %5, align 8
  store ptr %10, ptr %8, align 8
  %11 = load ptr, ptr %8, align 8
  %12 = load ptr, ptr %6, align 8
  %13 = call ptr @pcf_find_property(ptr noundef %11, ptr noundef %12)
  store ptr %13, ptr %9, align 8
  %14 = load ptr, ptr %9, align 8
  %15 = icmp ne ptr %14, null
  br i1 %15, label %16, label %52

16:                                               ; preds = %3
  %17 = load ptr, ptr %9, align 8
  %18 = getelementptr inbounds %struct.PCF_PropertyRec_, ptr %17, i32 0, i32 1
  %19 = load i8, ptr %18, align 8
  %20 = icmp ne i8 %19, 0
  br i1 %20, label %21, label %29

21:                                               ; preds = %16
  %22 = load ptr, ptr %7, align 8
  %23 = getelementptr inbounds %struct.BDF_PropertyRec_, ptr %22, i32 0, i32 0
  store i32 1, ptr %23, align 8
  %24 = load ptr, ptr %9, align 8
  %25 = getelementptr inbounds %struct.PCF_PropertyRec_, ptr %24, i32 0, i32 2
  %26 = load ptr, ptr %25, align 8
  %27 = load ptr, ptr %7, align 8
  %28 = getelementptr inbounds %struct.BDF_PropertyRec_, ptr %27, i32 0, i32 1
  store ptr %26, ptr %28, align 8
  br label %51

29:                                               ; preds = %16
  %30 = load ptr, ptr %9, align 8
  %31 = getelementptr inbounds %struct.PCF_PropertyRec_, ptr %30, i32 0, i32 2
  %32 = load i64, ptr %31, align 8
  %33 = icmp sgt i64 %32, 2147483647
  br i1 %33, label %39, label %34

34:                                               ; preds = %29
  %35 = load ptr, ptr %9, align 8
  %36 = getelementptr inbounds %struct.PCF_PropertyRec_, ptr %35, i32 0, i32 2
  %37 = load i64, ptr %36, align 8
  %38 = icmp slt i64 %37, -2147483648
  br i1 %38, label %39, label %42

39:                                               ; preds = %34, %29
  br label %40

40:                                               ; preds = %39
  br label %41

41:                                               ; preds = %40
  br label %42

42:                                               ; preds = %41, %34
  %43 = load ptr, ptr %7, align 8
  %44 = getelementptr inbounds %struct.BDF_PropertyRec_, ptr %43, i32 0, i32 0
  store i32 2, ptr %44, align 8
  %45 = load ptr, ptr %9, align 8
  %46 = getelementptr inbounds %struct.PCF_PropertyRec_, ptr %45, i32 0, i32 2
  %47 = load i64, ptr %46, align 8
  %48 = trunc i64 %47 to i32
  %49 = load ptr, ptr %7, align 8
  %50 = getelementptr inbounds %struct.BDF_PropertyRec_, ptr %49, i32 0, i32 1
  store i32 %48, ptr %50, align 8
  br label %51

51:                                               ; preds = %42, %21
  store i32 0, ptr %4, align 4
  br label %53

52:                                               ; preds = %3
  store i32 6, ptr %4, align 4
  br label %53

53:                                               ; preds = %52, %51
  %54 = load i32, ptr %4, align 4
  ret i32 %54
}