; Function Attrs: nofree nounwind memory(read, argmem: readwrite, inaccessiblemem: none) uwtable
define internal range(i32 0, 7) i32 @pcf_get_bdf_property(ptr nocapture noundef readonly %0, ptr nocapture noundef readonly %1, ptr nocapture noundef writeonly %2) #4 {
  %4 = getelementptr inbounds i8, ptr %0, i64 512
  %5 = load ptr, ptr %4, align 8
  %6 = getelementptr inbounds i8, ptr %0, i64 504
  %7 = load i32, ptr %6, align 8
  %8 = icmp sgt i32 %7, 0
  br i1 %8, label %.lr.ph.preheader.i, label %pcf_find_property.exit.thread

.lr.ph.preheader.i:                               ; preds = %3
  %9 = zext nneg i32 %7 to i64
  br label %.lr.ph.i

.lr.ph.i:                                         ; preds = %.lr.ph.i, %.lr.ph.preheader.i
  %indvars.iv.i = phi i64 [ 0, %.lr.ph.preheader.i ], [ %indvars.iv.next.i, %.lr.ph.i ]
  %10 = getelementptr inbounds %struct.PCF_PropertyRec_, ptr %5, i64 %indvars.iv.i
  %11 = load ptr, ptr %10, align 8
  %12 = tail call i32 @strcmp(ptr noundef nonnull dereferenceable(1) %11, ptr noundef nonnull readonly dereferenceable(1) %1) #16
  %.fr.i = freeze i32 %12
  %.not13.i = icmp ne i32 %.fr.i, 0
  %indvars.iv.next.i = add nuw nsw i64 %indvars.iv.i, 1
  %13 = icmp ult i64 %indvars.iv.next.i, %9
  %14 = and i1 %13, %.not13.i
  br i1 %14, label %.lr.ph.i, label %._crit_edge.i, !llvm.loop !10

._crit_edge.i:                                    ; preds = %.lr.ph.i
  %15 = and i64 %indvars.iv.next.i, 4294967295
  %16 = getelementptr inbounds %struct.PCF_PropertyRec_, ptr %5, i64 %15
  br i1 %.not13.i, label %pcf_find_property.exit.thread, label %pcf_find_property.exit

pcf_find_property.exit:                           ; preds = %._crit_edge.i
  %17 = getelementptr inbounds i8, ptr %16, i64 -16
  %18 = load i8, ptr %17, align 8
  %.not13 = icmp eq i8 %18, 0
  br i1 %.not13, label %23, label %19

19:                                               ; preds = %pcf_find_property.exit
  store i32 1, ptr %2, align 8
  %20 = getelementptr inbounds i8, ptr %16, i64 -8
  %21 = load ptr, ptr %20, align 8
  %22 = getelementptr inbounds i8, ptr %2, i64 8
  store ptr %21, ptr %22, align 8
  br label %pcf_find_property.exit.thread

23:                                               ; preds = %pcf_find_property.exit
  %24 = getelementptr inbounds i8, ptr %16, i64 -8
  store i32 2, ptr %2, align 8
  %25 = load i64, ptr %24, align 8
  %26 = trunc i64 %25 to i32
  %27 = getelementptr inbounds i8, ptr %2, i64 8
  store i32 %26, ptr %27, align 8
  br label %pcf_find_property.exit.thread

pcf_find_property.exit.thread:                    ; preds = %._crit_edge.i, %3, %19, %23
  %.0 = phi i32 [ 0, %23 ], [ 0, %19 ], [ 6, %3 ], [ 6, %._crit_edge.i ]
  ret i32 %.0
}